; Function Attrs: alwaysinline norecurse nounwind ssp uwtable
define internal void @"_ZN6open3d4core15ParallelForCPU_IZZZNS_1t8geometry6kernel12trianglemesh23ComputeTriangleAreasCPUERKNS0_6TensorES8_RS6_ENK3$_0clEvENKUlvE0_clEvEUllE_EEvRKNS0_6DeviceElRKT_.omp_outlined"(ptr noalias noundef readonly captures(none) %0, ptr noalias readnone captures(none) %1, ptr noundef nonnull readonly align 8 captures(none) dereferenceable(8) %2, ptr noundef nonnull readonly align 8 captures(none) dereferenceable(24) %3) #25 personality ptr @__gxx_personality_v0 {
  %5 = alloca i64, align 8
  %6 = alloca i64, align 8
  %7 = alloca i64, align 8
  %8 = alloca i32, align 4
  %9 = load i64, ptr %2, align 8, !tbaa !41
  %10 = icmp sgt i64 %9, 0
  br i1 %10, label %11, label %68

11:                                               ; preds = %4
  %12 = add nsw i64 %9, -1
  call void @llvm.lifetime.start.p0(i64 8, ptr nonnull %5) #26
  store i64 0, ptr %5, align 8, !tbaa !41
  call void @llvm.lifetime.start.p0(i64 8, ptr nonnull %6) #26
  store i64 %12, ptr %6, align 8, !tbaa !41
  call void @llvm.lifetime.start.p0(i64 8, ptr nonnull %7) #26
  store i64 1, ptr %7, align 8, !tbaa !41
  call void @llvm.lifetime.start.p0(i64 4, ptr nonnull %8) #26
  store i32 0, ptr %8, align 4, !tbaa !28
  %13 = load i32, ptr %0, align 4, !tbaa !28
  call void @__kmpc_for_static_init_8(ptr nonnull @1, i32 %13, i32 34, ptr nonnull %8, ptr nonnull %5, ptr nonnull %6, ptr nonnull %7, i64 1, i64 1)
  %14 = load i64, ptr %6, align 8, !tbaa !41
  %15 = call i64 @llvm.smin.i64(i64 %14, i64 %12)
  store i64 %15, ptr %6, align 8, !tbaa !41
  %16 = load i64, ptr %5, align 8, !tbaa !41
  %.not13 = icmp sgt i64 %16, %15
  br i1 %.not13, label %._crit_edge, label %.lr.ph

.lr.ph:                                           ; preds = %11
  %17 = load ptr, ptr %3, align 8, !tbaa !679
  %18 = getelementptr inbounds nuw i8, ptr %3, i64 8
  %19 = load ptr, ptr %18, align 8, !tbaa !681
  %20 = getelementptr inbounds nuw i8, ptr %3, i64 16
  %21 = load ptr, ptr %20, align 8, !tbaa !682
  br label %22

22:                                               ; preds = %.lr.ph, %22
  %.014 = phi i64 [ %16, %.lr.ph ], [ %67, %22 ]
  %.idx.i = mul nsw i64 %.014, 24
  %23 = getelementptr inbounds i8, ptr %17, i64 %.idx.i
  %24 = load i64, ptr %23, align 8, !tbaa !41
  %25 = getelementptr i8, ptr %23, i64 8
  %26 = load i64, ptr %25, align 8, !tbaa !41
  %27 = getelementptr i8, ptr %23, i64 16
  %28 = load i64, ptr %27, align 8, !tbaa !41
  %.idx20.i = mul nsw i64 %26, 24
  %29 = getelementptr inbounds i8, ptr %19, i64 %.idx20.i
  %30 = load double, ptr %29, align 8, !tbaa !661
  %.idx22.i = mul i64 %24, 24
  %31 = getelementptr i8, ptr %19, i64 %.idx22.i
  %32 = load double, ptr %31, align 8, !tbaa !661
  %33 = fsub double %30, %32
  %34 = getelementptr i8, ptr %29, i64 8
  %35 = load double, ptr %34, align 8, !tbaa !661
  %36 = getelementptr i8, ptr %31, i64 8
  %37 = load double, ptr %36, align 8, !tbaa !661
  %38 = fsub double %35, %37
  %39 = getelementptr i8, ptr %29, i64 16
  %40 = load double, ptr %39, align 8, !tbaa !661
  %41 = getelementptr i8, ptr %31, i64 16
  %42 = load double, ptr %41, align 8, !tbaa !661
  %43 = fsub double %40, %42
  %.idx21.i = mul nsw i64 %28, 24
  %44 = getelementptr inbounds i8, ptr %19, i64 %.idx21.i
  %45 = load double, ptr %44, align 8, !tbaa !661
  %46 = fsub double %45, %32
  %47 = getelementptr i8, ptr %44, i64 8
  %48 = load double, ptr %47, align 8, !tbaa !661
  %49 = fsub double %48, %37
  %50 = getelementptr i8, ptr %44, i64 16
  %51 = load double, ptr %50, align 8, !tbaa !661
  %52 = fsub double %51, %42
  %53 = fneg double %49
  %54 = fmul double %43, %53
  %55 = call double @llvm.fmuladd.f64(double %38, double %52, double %54)
  %56 = fneg double %52
  %57 = fmul double %33, %56
  %58 = call double @llvm.fmuladd.f64(double %43, double %46, double %57)
  %59 = fneg double %46
  %60 = fmul double %38, %59
  %61 = call double @llvm.fmuladd.f64(double %33, double %49, double %60)
  %62 = fmul double %58, %58
  %63 = call double @llvm.fmuladd.f64(double %55, double %55, double %62)
  %64 = call double @llvm.fmuladd.f64(double %61, double %61, double %63)
  %sqrt.i.i = call noundef double @llvm.sqrt.f64(double %64)
  %65 = fmul double %sqrt.i.i, 5.000000e-01
  %66 = getelementptr inbounds double, ptr %21, i64 %.014
  store double %65, ptr %66, align 8, !tbaa !661
  %67 = add i64 %.014, 1
  %exitcond.not = icmp eq i64 %.014, %15
  br i1 %exitcond.not, label %._crit_edge, label %22

._crit_edge:                                      ; preds = %22, %11
  call void @__kmpc_for_static_fini(ptr nonnull @1, i32 %13)
  call void @llvm.lifetime.end.p0(i64 4, ptr nonnull %8) #26
  call void @llvm.lifetime.end.p0(i64 8, ptr nonnull %7) #26
  call void @llvm.lifetime.end.p0(i64 8, ptr nonnull %6) #26
  call void @llvm.lifetime.end.p0(i64 8, ptr nonnull %5) #26
  br label %68

68:                                               ; preds = %._crit_edge, %4
  ret void
}